target datalayout = "e-m:e-p270:32:32-p271:32:32-p272:64:64-i64:64-i128:128-f80:128-n8:16:32:64-S128"
target triple = "x86_64-pc-linux-gnu"

%struct.re_pattern_buffer = type { ptr, ptr, ptr, i32, i32, ptr, ptr, i32, i32, i32, i32, i32, i32, i32, i32, i32, ptr, ptr, i32, ptr, i32, ptr, i32, i32, i32, i32, i32, i32, ptr, ptr, [256 x i8], i32, i32, i32, ptr }
%struct.ParseEnv = type { i32, i32, ptr, ptr, i32, i32, i32, ptr, ptr, ptr, ptr, ptr, i32, i32, i32, i32, [8 x %struct.MemEnv], ptr, i32, i32, i32, i32, ptr, ptr, i32, i32 }
%struct.MemEnv = type { ptr, ptr }

; Function Attrs: nounwind uwtable
define internal i32 @set_whole_options(i32 noundef %0, ptr noundef %1) #0 {
  %3 = alloca i32, align 4
  %4 = alloca i32, align 4
  %5 = alloca ptr, align 8
  store i32 %0, ptr %4, align 4, !tbaa !10
  store ptr %1, ptr %5, align 8, !tbaa !9
  %6 = load ptr, ptr %5, align 8, !tbaa !9
  %7 = getelementptr inbounds nuw %struct.ParseEnv, ptr %6, i32 0, i32 25
  %8 = load i32, ptr %7, align 4, !tbaa !163
  %9 = and i32 %8, 2
  %10 = icmp ne i32 %9, 0
  br i1 %10, label %11, label %12

11:                                               ; preds = %2
  store i32 -120, ptr %3, align 4
  br label %67

12:                                               ; preds = %2
  %13 = load ptr, ptr %5, align 8, !tbaa !9
  %14 = getelementptr inbounds nuw %struct.ParseEnv, ptr %13, i32 0, i32 25
  %15 = load i32, ptr %14, align 4, !tbaa !163
  %16 = or i32 %15, 2
  store i32 %16, ptr %14, align 4, !tbaa !163
  %17 = load i32, ptr %4, align 4, !tbaa !10
  %18 = and i32 %17, 128
  %19 = icmp ne i32 %18, 0
  br i1 %19, label %20, label %32

20:                                               ; preds = %12
  %21 = load ptr, ptr %5, align 8, !tbaa !9
  %22 = getelementptr inbounds nuw %struct.ParseEnv, ptr %21, i32 0, i32 11
  %23 = load ptr, ptr %22, align 8, !tbaa !161
  %24 = getelementptr inbounds nuw %struct.re_pattern_buffer, ptr %23, i32 0, i32 18
  %25 = load i32, ptr %24, align 8, !tbaa !69
  %26 = or i32 %25, 128
  store i32 %26, ptr %24, align 8, !tbaa !69
  %27 = load i32, ptr %4, align 4, !tbaa !10
  %28 = and i32 %27, 384
  %29 = icmp eq i32 %28, 384
  br i1 %29, label %30, label %31

30:                                               ; preds = %20
  store i32 -403, ptr %3, align 4
  br label %67

31:                                               ; preds = %20
  br label %32

32:                                               ; preds = %31, %12
  %33 = load i32, ptr %4, align 4, !tbaa !10
  %34 = and i32 %33, 32768
  %35 = icmp ne i32 %34, 0
  br i1 %35, label %36, label %55

36:                                               ; preds = %32
  %37 = load ptr, ptr %5, align 8, !tbaa !9
  %38 = getelementptr inbounds nuw %struct.ParseEnv, ptr %37, i32 0, i32 11
  %39 = load ptr, ptr %38, align 8, !tbaa !161
  %40 = getelementptr inbounds nuw %struct.re_pattern_buffer, ptr %39, i32 0, i32 20
  %41 = load i32, ptr %40, align 8, !tbaa !155
  %42 = and i32 %41, -1074790401
  store i32 %42, ptr %40, align 8, !tbaa !155
  %43 = load ptr, ptr %5, align 8, !tbaa !9
  %44 = getelementptr inbounds nuw %struct.ParseEnv, ptr %43, i32 0, i32 11
  %45 = load ptr, ptr %44, align 8, !tbaa !161
  %46 = getelementptr inbounds nuw %struct.re_pattern_buffer, ptr %45, i32 0, i32 20
  %47 = load i32, ptr %46, align 8, !tbaa !155
  %48 = or i32 %47, 1
  store i32 %48, ptr %46, align 8, !tbaa !155
  %49 = load ptr, ptr %5, align 8, !tbaa !9
  %50 = getelementptr inbounds nuw %struct.ParseEnv, ptr %49, i32 0, i32 11
  %51 = load ptr, ptr %50, align 8, !tbaa !161
  %52 = getelementptr inbounds nuw %struct.re_pattern_buffer, ptr %51, i32 0, i32 18
  %53 = load i32, ptr %52, align 8, !tbaa !69
  %54 = or i32 %53, 32768
  store i32 %54, ptr %52, align 8, !tbaa !69
  br label %55

55:                                               ; preds = %36, %32
  %56 = load i32, ptr %4, align 4, !tbaa !10
  %57 = and i32 %56, 16
  %58 = icmp ne i32 %57, 0
  br i1 %58, label %59, label %66

59:                                               ; preds = %55
  %60 = load ptr, ptr %5, align 8, !tbaa !9
  %61 = getelementptr inbounds nuw %struct.ParseEnv, ptr %60, i32 0, i32 11
  %62 = load ptr, ptr %61, align 8, !tbaa !161
  %63 = getelementptr inbounds nuw %struct.re_pattern_buffer, ptr %62, i32 0, i32 18
  %64 = load i32, ptr %63, align 8, !tbaa !69
  %65 = or i32 %64, 16
  store i32 %65, ptr %63, align 8, !tbaa !69
  br label %66

66:                                               ; preds = %59, %55
  store i32 0, ptr %3, align 4
  br label %67

67:                                               ; preds = %66, %30, %11
  %68 = load i32, ptr %3, align 4
  ret i32 %68
}