; Function Attrs: mustprogress nofree norecurse nosync nounwind willreturn memory(readwrite, inaccessiblemem: none) uwtable
define internal fastcc range(i32 -403, 1) i32 @set_whole_options(i32 noundef %0, ptr noundef captures(none) %1) unnamed_addr #21 {
  %3 = getelementptr inbounds nuw i8, ptr %1, i64 268
  %4 = load i32, ptr %3, align 4, !tbaa !152
  %5 = and i32 %4, 2
  %.not = icmp eq i32 %5, 0
  br i1 %.not, label %6, label %37

6:                                                ; preds = %2
  %7 = or disjoint i32 %4, 2
  store i32 %7, ptr %3, align 4, !tbaa !152
  %8 = and i32 %0, 128
  %.not11 = icmp eq i32 %8, 0
  br i1 %.not11, label %17, label %9

9:                                                ; preds = %6
  %10 = getelementptr inbounds nuw i8, ptr %1, i64 72
  %11 = load ptr, ptr %10, align 8, !tbaa !147
  %12 = getelementptr inbounds nuw i8, ptr %11, i64 104
  %13 = load i32, ptr %12, align 8, !tbaa !56
  %14 = or i32 %13, 128
  store i32 %14, ptr %12, align 8, !tbaa !56
  %15 = and i32 %0, 384
  %16 = icmp eq i32 %15, 384
  br i1 %16, label %37, label %17

17:                                               ; preds = %9, %6
  %18 = and i32 %0, 32768
  %.not12 = icmp eq i32 %18, 0
  br i1 %.not12, label %29, label %19

19:                                               ; preds = %17
  %20 = getelementptr inbounds nuw i8, ptr %1, i64 72
  %21 = load ptr, ptr %20, align 8, !tbaa !147
  %22 = getelementptr inbounds nuw i8, ptr %21, i64 120
  %23 = load i32, ptr %22, align 8, !tbaa !141
  %24 = and i32 %23, -1074790402
  %25 = or disjoint i32 %24, 1
  store i32 %25, ptr %22, align 8, !tbaa !141
  %26 = getelementptr inbounds nuw i8, ptr %21, i64 104
  %27 = load i32, ptr %26, align 8, !tbaa !56
  %28 = or i32 %27, 32768
  store i32 %28, ptr %26, align 8, !tbaa !56
  br label %29

29:                                               ; preds = %19, %17
  %30 = and i32 %0, 16
  %.not13 = icmp eq i32 %30, 0
  br i1 %.not13, label %37, label %31

31:                                               ; preds = %29
  %32 = getelementptr inbounds nuw i8, ptr %1, i64 72
  %33 = load ptr, ptr %32, align 8, !tbaa !147
  %34 = getelementptr inbounds nuw i8, ptr %33, i64 104
  %35 = load i32, ptr %34, align 8, !tbaa !56
  %36 = or i32 %35, 16
  store i32 %36, ptr %34, align 8, !tbaa !56
  br label %37

37:                                               ; preds = %29, %31, %9, %2
  %.0 = phi i32 [ -120, %2 ], [ -403, %9 ], [ 0, %31 ], [ 0, %29 ]
  ret i32 %.0
}